(dp1
<<<<<<< HEAD
S'user_id'
=======
S'admin_prefix'
>>>>>>> backend
p2
(dp3
S'length'
p4
I512
sS'unique'
p5
I00
sS'sortable'
p6
<<<<<<< HEAD
I2
=======
I6
>>>>>>> backend
sS'sql'
p7
S'INTEGER REFERENCES auth_user (id) ON DELETE CASCADE  '
p8
sS'notnull'
p9
I00
sS'type'
p10
S'reference auth_user'
p11
<<<<<<< HEAD
ssS'id'
=======
ssS'lessons_completed'
>>>>>>> backend
p12
(dp13
g4
I512
sg5
I00
sg6
<<<<<<< HEAD
I1
sg7
S'INTEGER PRIMARY KEY AUTOINCREMENT'
p14
sg9
I00
sg10
g12
=======
I7
sg7
S'INTEGER REFERENCES auth_user (id) ON DELETE CASCADE  '
p14
sg9
I00
sg10
S'reference auth_user'
p15
ssS'photo_id'
p16
(dp17
g4
I512
sg5
I00
sg6
I4
sg7
S'INTEGER REFERENCES auth_user (id) ON DELETE CASCADE  '
p18
sg9
I00
sg10
S'reference auth_user'
p19
ssS'karma_points'
p20
(dp21
g4
I512
sg5
I00
sg6
I5
sg7
S'INTEGER REFERENCES auth_user (id) ON DELETE CASCADE  '
p22
sg9
I00
sg10
S'reference auth_user'
p23
ssS'lessons_competed'
p24
(dp25
S'sortable'
p26
I6
sS'sql'
p27
S'INTEGER REFERENCES auth_user (id) ON DELETE CASCADE  '
p28
sS'length'
p29
I512
sS'notnull'
p30
I00
sS'unique'
p31
I00
sS'type'
p32
S'reference auth_user'
p33
ssS'preferred_named'
p34
(dp35
g4
I512
sg5
I00
sg6
I3
sg7
S'INTEGER REFERENCES auth_user (id) ON DELETE CASCADE  '
p36
sg9
I00
sg10
S'reference auth_user'
p37
ssS'user_id'
p38
(dp39
g4
I512
sg5
I00
sg6
I2
sg7
S'INTEGER REFERENCES auth_user (id) ON DELETE CASCADE  '
p40
sg9
I00
sg10
S'reference auth_user'
p41
ssS'id'
p42
(dp43
g4
I512
sg5
I00
sg6
I1
sg7
S'INTEGER PRIMARY KEY AUTOINCREMENT'
p44
sg9
I00
sg10
S'id'
p45
>>>>>>> backend
ss.