(dp1
S'id'
p2
(dp3
S'length'
p4
I512
sS'unique'
p5
I00
sS'sortable'
p6
I1
sS'sql'
p7
S'INTEGER PRIMARY KEY AUTOINCREMENT'
p8
sS'notnull'
p9
I00
sS'type'
p10
S'id'
p11
ssS'q1'
p12
(dp13
S'sortable'
p14
I3
sS'sql'
p15
S'CHAR(512)'
p16
sS'length'
p17
I512
sS'notnull'
p18
I00
sS'unique'
p19
I00
sS'type'
p20
S'string'
p21
ssS'l2_q5'
p22
(dp23
g4
I512
sg5
I00
sg6
I12
sg7
S'CHAR(512)'
p24
sg9
I00
sg10
S'string'
p25
ssS'l2_q4'
p26
(dp27
g4
I512
sg5
I00
sg6
I11
sg7
S'CHAR(512)'
p28
sg9
I00
sg10
g25
ssS'user_id'
p29
(dp30
g4
I512
sg5
I00
sg6
I2
sg7
S'INTEGER REFERENCES users (id) ON DELETE CASCADE  '
p31
sg9
I00
sg10
S'reference users'
p32
ssS'l2_q2'
p33
(dp34
g4
I512
sg5
I00
sg6
I9
sg7
S'CHAR(512)'
p35
sg9
I00
sg10
g25
ssS'l2_q1'
p36
(dp37
g4
I512
sg5
I00
sg6
I8
sg7
S'CHAR(512)'
p38
sg9
I00
sg10
g25
ssS'l3_q1'
p39
(dp40
g4
I512
sg5
I00
sg6
I13
sg7
S'CHAR(512)'
p41
sg9
I00
sg10
g25
ssS'l3_q2'
p42
(dp43
g4
I512
sg5
I00
sg6
I14
sg7
S'CHAR(512)'
p44
sg9
I00
sg10
g25
ssS'l3_q3'
p45
(dp46
g4
I512
sg5
I00
sg6
I15
sg7
S'CHAR(512)'
p47
sg9
I00
sg10
g25
ssS'l3_q4'
p48
(dp49
g4
I512
sg5
I00
sg6
I16
sg7
S'CHAR(512)'
p50
sg9
I00
sg10
g25
ssS'l3_q5'
p51
(dp52
g4
I512
sg5
I00
sg6
I17
sg7
S'CHAR(512)'
p53
sg9
I00
sg10
g25
ssS'l5_q2'
p54
(dp55
g4
I512
sg5
I00
sg6
I24
sg7
S'CHAR(512)'
p56
sg9
I00
sg10
g25
ssS'l5_q3'
p57
(dp58
g4
I512
sg5
I00
sg6
I25
sg7
S'CHAR(512)'
p59
sg9
I00
sg10
g25
ssS'l6_q3'
p60
(dp61
g4
I512
sg5
I00
sg6
I30
sg7
S'CHAR(512)'
p62
sg9
I00
sg10
g25
ssS'l6_q2'
p63
(dp64
g4
I512
sg5
I00
sg6
I29
sg7
S'CHAR(512)'
p65
sg9
I00
sg10
g25
ssS'l6_q1'
p66
(dp67
g4
I512
sg5
I00
sg6
I28
sg7
S'CHAR(512)'
p68
sg9
I00
sg10
g25
ssS'l5_q1'
p69
(dp70
g4
I512
sg5
I00
sg6
I23
sg7
S'CHAR(512)'
p71
sg9
I00
sg10
g25
ssS'l1_q4'
p72
(dp73
g4
I512
sg5
I00
sg6
I6
sg7
S'CHAR(512)'
p74
sg9
I00
sg10
g25
ssS'l5_q4'
p75
(dp76
g4
I512
sg5
I00
sg6
I26
sg7
S'CHAR(512)'
p77
sg9
I00
sg10
g25
ssS'l5_q5'
p78
(dp79
g4
I512
sg5
I00
sg6
I27
sg7
S'CHAR(512)'
p80
sg9
I00
sg10
g25
ssS'l1_q5'
p81
(dp82
g4
I512
sg5
I00
sg6
I7
sg7
S'CHAR(512)'
p83
sg9
I00
sg10
g25
ssS'l6_q5'
p84
(dp85
g4
I512
sg5
I00
sg6
I32
sg7
S'CHAR(512)'
p86
sg9
I00
sg10
g25
ssS'l2_q3'
p87
(dp88
g4
I512
sg5
I00
sg6
I10
sg7
S'CHAR(512)'
p89
sg9
I00
sg10
g25
ssS'l6_q4'
p90
(dp91
g4
I512
sg5
I00
sg6
I31
sg7
S'CHAR(512)'
p92
sg9
I00
sg10
g25
ssS'l1_q3'
p93
(dp94
g4
I512
sg5
I00
sg6
I5
sg7
S'CHAR(512)'
p95
sg9
I00
sg10
g25
ssS'l4_q1'
p96
(dp97
g4
I512
sg5
I00
sg6
I18
sg7
S'CHAR(512)'
p98
sg9
I00
sg10
g25
ssS'l4_q3'
p99
(dp100
g4
I512
sg5
I00
sg6
I20
sg7
S'CHAR(512)'
p101
sg9
I00
sg10
g25
ssS'l4_q2'
p102
(dp103
g4
I512
sg5
I00
sg6
I19
sg7
S'CHAR(512)'
p104
sg9
I00
sg10
g25
ssS'l1_q2'
p105
(dp106
g4
I512
sg5
I00
sg6
I4
sg7
S'CHAR(512)'
p107
sg9
I00
sg10
g25
ssS'l4_q4'
p108
(dp109
g4
I512
sg5
I00
sg6
I21
sg7
S'CHAR(512)'
p110
sg9
I00
sg10
g25
ssS'l1_q1'
p111
(dp112
g4
I512
sg5
I00
sg6
I3
sg7
S'CHAR(512)'
p113
sg9
I00
sg10
g25
ssS'l4_q5'
p114
(dp115
g4
I512
sg5
I00
sg6
I22
sg7
S'CHAR(512)'
p116
sg9
I00
sg10
g25
ssS'qn'
p117
(dp118
g14
I4
sg15
S'CHAR(512)'
p119
sg17
I512
sg18
I00
sg19
I00
sg20
g21
ss.