(dp1
S'id'
p2
(dp3
S'length'
p4
I512
sS'unique'
p5
I00
sS'sortable'
p6
I1
sS'sql'
p7
S'INTEGER PRIMARY KEY AUTOINCREMENT'
p8
sS'notnull'
p9
I00
sS'type'
p10
g2
ssS'l2_q5'
p11
(dp12
g4
I512
sg5
I00
sg6
I12
sg7
S'CHAR(512)'
p13
sg9
I00
sg10
S'string'
p14
ssS'l2_q4'
p15
(dp16
g4
I512
sg5
I00
sg6
I11
sg7
S'CHAR(512)'
p17
sg9
I00
sg10
g14
ssS'l2_q3'
p18
(dp19
g4
I512
sg5
I00
sg6
I10
sg7
S'CHAR(512)'
p20
sg9
I00
sg10
g14
ssS'l2_q2'
p21
(dp22
g4
I512
sg5
I00
sg6
I9
sg7
S'CHAR(512)'
p23
sg9
I00
sg10
g14
ssS'l2_q1'
p24
(dp25
g4
I512
sg5
I00
sg6
I8
sg7
S'CHAR(512)'
p26
sg9
I00
sg10
g14
ssS'l3_q1'
p27
(dp28
g4
I512
sg5
I00
sg6
I13
sg7
S'CHAR(512)'
p29
sg9
I00
sg10
g14
ssS'l3_q2'
p30
(dp31
g4
I512
sg5
I00
sg6
I14
sg7
S'CHAR(512)'
p32
sg9
I00
sg10
g14
ssS'l3_q3'
p33
(dp34
g4
I512
sg5
I00
sg6
I15
sg7
S'CHAR(512)'
p35
sg9
I00
sg10
g14
ssS'l3_q4'
p36
(dp37
g4
I512
sg5
I00
sg6
I16
sg7
S'CHAR(512)'
p38
sg9
I00
sg10
g14
ssS'l3_q5'
p39
(dp40
g4
I512
sg5
I00
sg6
I17
sg7
S'CHAR(512)'
p41
sg9
I00
sg10
g14
ssS'l6_q3'
p42
(dp43
g4
I512
sg5
I00
sg6
I30
sg7
S'CHAR(512)'
p44
sg9
I00
sg10
g14
ssS'l6_q2'
p45
(dp46
g4
I512
sg5
I00
sg6
I29
sg7
S'CHAR(512)'
p47
sg9
I00
sg10
g14
ssS'l5_q2'
p48
(dp49
g4
I512
sg5
I00
sg6
I24
sg7
S'CHAR(512)'
p50
sg9
I00
sg10
g14
ssS'l5_q3'
p51
(dp52
g4
I512
sg5
I00
sg6
I25
sg7
S'CHAR(512)'
p53
sg9
I00
sg10
g14
ssS'l6_q1'
p54
(dp55
g4
I512
sg5
I00
sg6
I28
sg7
S'CHAR(512)'
p56
sg9
I00
sg10
g14
ssS'l5_q1'
p57
(dp58
g4
I512
sg5
I00
sg6
I23
sg7
S'CHAR(512)'
p59
sg9
I00
sg10
g14
ssS'l4_q3'
p60
(dp61
g4
I512
sg5
I00
sg6
I20
sg7
S'CHAR(512)'
p62
sg9
I00
sg10
g14
ssS'l5_q4'
p63
(dp64
g4
I512
sg5
I00
sg6
I26
sg7
S'CHAR(512)'
p65
sg9
I00
sg10
g14
ssS'l5_q5'
p66
(dp67
g4
I512
sg5
I00
sg6
I27
sg7
S'CHAR(512)'
p68
sg9
I00
sg10
g14
ssS'l4_q2'
p69
(dp70
g4
I512
sg5
I00
sg6
I19
sg7
S'CHAR(512)'
p71
sg9
I00
sg10
g14
ssS'l6_q5'
p72
(dp73
g4
I512
sg5
I00
sg6
I32
sg7
S'CHAR(512)'
p74
sg9
I00
sg10
g14
ssS'user_id'
p75
(dp76
g4
I512
sg5
I00
sg6
I2
sg7
S'INTEGER REFERENCES users (id) ON DELETE CASCADE  '
p77
sg9
I00
sg10
S'reference users'
p78
ssS'l6_q4'
p79
(dp80
g4
I512
sg5
I00
sg6
I31
sg7
S'CHAR(512)'
p81
sg9
I00
sg10
g14
ssS'l4_q4'
p82
(dp83
g4
I512
sg5
I00
sg6
I21
sg7
S'CHAR(512)'
p84
sg9
I00
sg10
g14
ssS'l4_q1'
p85
(dp86
g4
I512
sg5
I00
sg6
I18
sg7
S'CHAR(512)'
p87
sg9
I00
sg10
g14
ssS'l1_q4'
p88
(dp89
g4
I512
sg5
I00
sg6
I6
sg7
S'CHAR(512)'
p90
sg9
I00
sg10
g14
ssS'l1_q5'
p91
(dp92
g4
I512
sg5
I00
sg6
I7
sg7
S'CHAR(512)'
p93
sg9
I00
sg10
g14
ssS'l1_q2'
p94
(dp95
g4
I512
sg5
I00
sg6
I4
sg7
S'CHAR(512)'
p96
sg9
I00
sg10
g14
ssS'l1_q3'
p97
(dp98
g4
I512
sg5
I00
sg6
I5
sg7
S'CHAR(512)'
p99
sg9
I00
sg10
g14
ssS'l1_q1'
p100
(dp101
g4
I512
sg5
I00
sg6
I3
sg7
S'CHAR(512)'
p102
sg9
I00
sg10
g14
ssS'l4_q5'
p103
(dp104
g4
I512
sg5
I00
sg6
I22
sg7
S'CHAR(512)'
p105
sg9
I00
sg10
g14
ss.