(dp1
S'output'
p2
S'Unable to open included view file: /Users/alexprice/Documents/Github/web2py/applications/hackucsc2016/views/top-nav.html'
p3
sS'layer'
p4
S'ParserContainer'
p5
sS'code'
p6
S'<!DOCTYPE html>\n\n<head>\n    <title>Our Walmart - Lessons</title>\n    <link rel="stylesheet" type="text/css" href="{{=URL(\'static\',\'css/lessons.css\')}}">\n    <link rel="stylesheet" type="text/css" href="{{=URL(\'static\',\'css/animate.css\')}}">\n</head>\n\n<body>\n\n{{include \'top-nav.html\'}}\n\n<div class="lesson" style="background-image:linear-gradient(to right, #eee, #eee 100%, #fff 100%, #fff 85%);"> <!-- ideally, this\'d be updated with an ajax call to see what step the user is on; if greater than step one, also change the button below to read "continue lesson" -->\n\t<h3><span class="lesson-number">01</span> Labor rights</h3>\n\t<span class="lesson-info">This is information about the lesson, click me to get started</span>\n\t<br><br>\n\t<a href="{{=URL(\'menu.html\')}}"><div><i class="fa fa-chevron-right"></i> Review lesson</div></a>\n</div>\n<div class="lesson" style="background-image:linear-gradient(to right, #eee, #eee 40%, #fff 40%, #fff 85%);">\n\t<h3><span class="lesson-number">01</span> Labor rights</h3>\n\t<span class="lesson-info">This is information about the lesson, click me to get started</span>\n\t<br><br>\n\t<a href="#"><div><i class="fa fa-chevron-right"></i> Continue lesson</div></a>\n</div>\n<div class="lesson">\n\t<h3><span class="lesson-number">01</span> Labor rights</h3>\n\t<span class="lesson-info">This is information about the lesson, click me to get started</span>\n\t<br><br>\n\t<a href="#"><div><i class="fa fa-chevron-right"></i> Start lesson</div></a>\n</div>\n<div class="lesson">\n\t<h3><span class="lesson-number">01</span> Labor rights</h3>\n\t<span class="lesson-info">This is information about the lesson, click me to get started</span>\n\t<br><br>\n\t<a href="#"><div><i class="fa fa-chevron-right"></i> Start lesson</div></a>\n</div>\n<div class="lesson">\n\t<h3><span class="lesson-number">01</span> Labor rights</h3>\n\t<span class="lesson-info">This is information about the lesson, click me to get started</span>\n\t<br><br>\n\t<a href="#"><div><i class="fa fa-chevron-right"></i> Start lesson</div></a>\n</div>\n\n\n</body>\n<script src="http://code.jquery.com/jquery-1.12.0.min.js"></script>\n\n</html>'
p7
sS'snapshot'
p8
(dp9
S'exception'
p10
(dp11
S'__getslice__'
p12
S"<method-wrapper '__getslice__' of exceptions.IOError object>"
p13
sS'__str__'
p14
S"<method-wrapper '__str__' of exceptions.IOError object>"
p15
sS'__reduce__'
p16
S'<built-in method __reduce__ of exceptions.IOError object>'
p17
sS'__dict__'
p18
S'{}'
p19
sS'__sizeof__'
p20
S'<built-in method __sizeof__ of exceptions.IOError object>'
p21
sS'__init__'
p22
S"<method-wrapper '__init__' of exceptions.IOError object>"
p23
sS'__setattr__'
p24
S"<method-wrapper '__setattr__' of exceptions.IOError object>"
p25
sS'__reduce_ex__'
p26
S'<built-in method __reduce_ex__ of exceptions.IOError object>'
p27
sS'__new__'
p28
S'<built-in method __new__ of type object>'
p29
sS'errno'
p30
S'2'
sS'__format__'
p31
S'<built-in method __format__ of exceptions.IOError object>'
p32
sS'__class__'
p33
S"<type 'exceptions.IOError'>"
p34
sS'filename'
p35
S"'/Users/alexprice/Documents/Github/web2py/applications/hackucsc2016/views/top-nav.html'"
p36
sS'__doc__'
p37
S"'I/O operation failed.'"
p38
sS'__getitem__'
p39
S"<method-wrapper '__getitem__' of exceptions.IOError object>"
p40
sS'__setstate__'
p41
S'<built-in method __setstate__ of exceptions.IOError object>'
p42
sS'__getattribute__'
p43
S"<method-wrapper '__getattribute__' of exceptions.IOError object>"
p44
sS'args'
p45
S"(2, 'No such file or directory')"
p46
sS'__subclasshook__'
p47
S'<built-in method __subclasshook__ of type object>'
p48
sS'__unicode__'
p49
S'<built-in method __unicode__ of exceptions.IOError object>'
p50
sS'strerror'
p51
S"'No such file or directory'"
p52
sS'__delattr__'
p53
S"<method-wrapper '__delattr__' of exceptions.IOError object>"
p54
sS'__repr__'
p55
S"<method-wrapper '__repr__' of exceptions.IOError object>"
p56
sS'__hash__'
p57
S"<method-wrapper '__hash__' of exceptions.IOError object>"
p58
ssS'evalue'
p59
S"[Errno 2] No such file or directory: '/Users/alexprice/Documents/Github/web2py/applications/hackucsc2016/views/top-nav.html'"
p60
sS'frames'
p61
(lp62
(dp63
S'file'
p64
S'/Users/alexprice/Documents/Github/web2py/gluon/template.py'
p65
sS'dump'
p66
(dp67
S'builtinopen'
p68
S'<built-in function open>'
p69
sS'fileobj'
p70
S'undefined'
p71
sS'filepath'
p72
S"'/Users/alexprice/Documents/Github/web2py/applications/hackucsc2016/views/top-nav.html'"
p73
ssS'lnum'
p74
I450
sS'lines'
p75
(dp76
I448
S'        # try to read the text.'
p77
sI449
S'        try:'
p78
sI450
S"            fileobj = open(filepath, 'rb')"
p79
sI451
S'            text = fileobj.read()'
p80
sI452
S'            fileobj.close()'
p81
sI453
S'        except IOError:'
p82
sI454
S"            self._raise_error('Unable to open included view file: ' + filepath)"
p83
sI445
S'        # Get the path of the file on the system.'
p84
sI446
S'        filepath = self.path and os.path.join(self.path, filename) or filename'
p85
sI447
S''
ssS'call'
p86
S"(self=<gluon.template.TemplateParser object>, filename='top-nav.html')"
p87
sS'func'
p88
S'_get_file_text'
p89
sasS'pyver'
p90
S'Python 2.6.9: /System/Library/Frameworks/Python.framework/Versions/2.6/bin/python2.6 (prefix: /System/Library/Frameworks/Python.framework/Versions/2.6)'
p91
sS'etype'
p92
S"<type 'exceptions.IOError'>"
p93
sS'date'
p94
S'Sat Jan 30 21:29:23 2016'
p95
sS'locals'
p96
(dp97
S'self'
p98
S'<gluon.template.TemplateParser object>'
p99
sS'filepath'
p100
S"'/Users/alexprice/Documents/Github/web2py/applications/hackucsc2016/views/top-nav.html'"
p101
sS'context'
p102
S"{'A': <class 'gluon.html.A'>, 'ANY_OF': <class 'gluon.validators.ANY_OF'>, 'ASSIGNJS': <function ASSIGNJS>, 'AppConfig': <function AppConfig>, 'Auth': <class 'gluon.tools.Auth'>, 'B': <class 'gluon.html.B'>, 'BEAUTIFY': <class 'gluon.html.BEAUTIFY'>, 'BODY': <class 'gluon.html.BODY'>, 'BR': <class 'gluon.html.BR'>, 'BUTTON': <class 'gluon.html.BUTTON'>, ...}"
p103
sg35
S"'top-nav.html'"
p104
sssS'traceback'
p105
S'Traceback (most recent call last):\n  File "/Users/alexprice/Documents/Github/web2py/gluon/template.py", line 450, in _get_file_text\n    fileobj = open(filepath, \'rb\')\nIOError: [Errno 2] No such file or directory: \'/Users/alexprice/Documents/Github/web2py/applications/hackucsc2016/views/top-nav.html\'\n'
p106
s.